(dp0
S'Blue'
p1
(I0
I0
I255
tp2
sS'Gray'
p3
(I128
I128
I128
tp4
sS'Green'
p5
(I0
I128
I0
tp6
sS'DarkOrange'
p7
(I255
I140
I0
tp8
sS'Brown'
p9
(I165
I42
I42
tp10
sS'Purple'
p11
(I128
I0
I128
tp12
sS'SaddleBrown'
p13
(I139
I69
I19
tp14
sS'Orange'
p15
(I255
I165
I0
tp16
sS'Yellow'
p17
(I255
I255
I0
tp18
sS'Silver'
p19
(I192
I192
I192
tp20
sS'Navy'
p21
(I0
I0
I128
tp22
sS'Black'
p23
(I0
I0
I0
tp24
sS'Maroon'
p25
(I128
I0
I0
tp26
sS'Teal'
p27
(I0
I128
I128
tp28
sS'OrangeRed'
p29
(I255
I69
I0
tp30
sS'Olive'
p31
(I128
I128
I0
tp32
sS'Cyan'
p33
(I0
I255
I255
tp34
sS'White'
p35
(I255
I255
I255
tp36
sS'Magenta'
p37
(I255
I0
I255
tp38
sS'Red'
p39
(I255
I0
I0
tp40
sS'Lime'
p41
(I0
I255
I0
tp42
s.